Certificate:
    Data:
        Version: 1 (0x0)
        Serial Number: 2 (0x2)
    Signature Algorithm: sha256WithRSAEncryption
        Issuer: C=DZ, ST=Algiers, L=Algiers, O=DECIMA, OU=DECIMA, CN=CyberPunk
        Validity
            Not Before: Jan 21 20:13:28 2021 GMT
            Not After : Jan 21 20:13:28 2022 GMT
        Subject: C=DZ, ST=Algiers, L=Algiers, O=CLIENT_DECIMA, OU=Cyber, CN=Cyber
        Subject Public Key Info:
            Public Key Algorithm: rsaEncryption
                Public-Key: (2048 bit)
                Modulus:
                    00:be:20:26:67:f9:04:51:59:59:11:ca:0e:9d:62:
                    28:c4:db:d2:3d:36:de:37:57:fd:19:42:80:3e:cf:
                    9a:2b:ce:af:ff:8a:30:bc:cb:d7:60:8c:f5:0b:ad:
                    6e:c5:4d:c0:e5:3f:31:f6:16:23:2f:82:2f:2b:f3:
                    6c:7c:31:75:90:b9:85:25:b8:15:97:d2:2a:16:f0:
                    1c:91:86:b9:61:6c:d6:d6:2b:97:52:f2:fd:c6:ae:
                    16:f3:31:ba:c8:70:16:02:84:00:21:fe:86:c4:aa:
                    e1:4b:89:03:5a:2f:46:df:cf:c6:b5:b1:7c:2f:9c:
                    ab:e4:75:b4:8b:48:08:97:2f:33:f8:68:8c:9c:76:
                    c4:ca:02:b0:aa:e7:f0:f2:85:79:0c:43:f1:ca:8e:
                    2d:4e:85:c2:62:76:d3:c1:db:c9:53:9a:d9:11:b5:
                    a2:ee:2d:8f:f0:43:0c:d6:d9:99:31:94:c6:7f:b6:
                    bd:f6:77:d4:f6:f0:69:30:2d:2b:d0:0e:5e:d8:42:
                    91:9a:2a:58:97:51:00:3f:d9:a0:bb:e0:59:33:1f:
                    da:f8:f9:4f:5c:61:ab:8e:65:87:e4:d1:f4:24:10:
                    db:73:c5:da:f9:9d:da:75:19:f7:43:70:75:3d:94:
                    11:09:b4:c2:80:0e:a7:eb:bb:70:0b:bb:8d:b4:81:
                    d9:9b
                Exponent: 65537 (0x10001)
    Signature Algorithm: sha256WithRSAEncryption
         92:10:6d:3c:4e:4a:42:30:6a:cb:a7:f6:37:f6:d8:0d:e0:89:
         61:86:00:b2:a2:c6:de:1e:d2:04:d6:d9:fb:a1:a9:54:24:f6:
         8f:ab:89:9f:33:48:c0:66:85:a4:d0:1b:1b:45:09:74:38:42:
         fb:cb:05:31:fd:41:cc:1f:15:f7:c5:d7:b2:de:dc:48:91:0a:
         8a:19:cd:15:6b:ba:54:2d:7d:68:95:a0:01:73:c8:08:b7:33:
         d5:35:cd:10:ce:a5:b9:bc:9a:4d:fc:04:83:48:17:56:0b:ca:
         81:9a:fa:1c:8e:72:dc:29:cb:05:a6:1d:29:8f:f0:2f:c5:76:
         00:65:6b:db:b3:aa:c7:a1:49:38:a3:39:c7:9a:89:24:17:ce:
         22:dd:54:0d:d5:27:e9:ca:2f:27:8d:01:fc:40:d9:f1:5f:d4:
         f8:6d:d1:7e:87:79:25:e1:97:ec:de:14:c5:2a:e2:b0:3b:4e:
         bf:d6:24:c8:de:ab:d5:35:9b:18:75:2f:26:2e:44:c3:b5:bd:
         9b:b6:45:c6:1a:76:89:83:29:86:fd:27:45:c3:f6:bc:95:fe:
         cb:1f:be:44:be:37:6b:a4:07:19:24:58:84:09:c4:0e:63:eb:
         a7:64:66:fc:02:36:1e:75:e8:5a:b3:f7:5d:5d:38:25:1e:c7:
         cb:67:ca:67
-----BEGIN CERTIFICATE-----
MIIDRDCCAiwCAQIwDQYJKoZIhvcNAQELBQAwZzELMAkGA1UEBhMCRFoxEDAOBgNV
BAgMB0FsZ2llcnMxEDAOBgNVBAcMB0FsZ2llcnMxDzANBgNVBAoMBkRFQ0lNQTEP
MA0GA1UECwwGREVDSU1BMRIwEAYDVQQDDAlDeWJlclB1bmswHhcNMjEwMTIxMjAx
MzI4WhcNMjIwMTIxMjAxMzI4WjBpMQswCQYDVQQGEwJEWjEQMA4GA1UECAwHQWxn
aWVyczEQMA4GA1UEBwwHQWxnaWVyczEWMBQGA1UECgwNQ0xJRU5UX0RFQ0lNQTEO
MAwGA1UECwwFQ3liZXIxDjAMBgNVBAMMBUN5YmVyMIIBIjANBgkqhkiG9w0BAQEF
AAOCAQ8AMIIBCgKCAQEAviAmZ/kEUVlZEcoOnWIoxNvSPTbeN1f9GUKAPs+aK86v
/4owvMvXYIz1C61uxU3A5T8x9hYjL4IvK/NsfDF1kLmFJbgVl9IqFvAckYa5YWzW
1iuXUvL9xq4W8zG6yHAWAoQAIf6GxKrhS4kDWi9G38/GtbF8L5yr5HW0i0gIly8z
+GiMnHbEygKwqufw8oV5DEPxyo4tToXCYnbTwdvJU5rZEbWi7i2P8EMM1tmZMZTG
f7a99nfU9vBpMC0r0A5e2EKRmipYl1EAP9mgu+BZMx/a+PlPXGGrjmWH5NH0JBDb
c8Xa+Z3adRn3Q3B1PZQRCbTCgA6n67twC7uNtIHZmwIDAQABMA0GCSqGSIb3DQEB
CwUAA4IBAQCSEG08TkpCMGrLp/Y39tgN4IlhhgCyosbeHtIE1tn7oalUJPaPq4mf
M0jAZoWk0BsbRQl0OEL7ywUx/UHMHxX3xdey3txIkQqKGc0Va7pULX1olaABc8gI
tzPVNc0QzqW5vJpN/ASDSBdWC8qBmvocjnLcKcsFph0pj/AvxXYAZWvbs6rHoUk4
oznHmokkF84i3VQN1Sfpyi8njQH8QNnxX9T4bdF+h3kl4Zfs3hTFKuKwO06/1iTI
3qvVNZsYdS8mLkTDtb2btkXGGnaJgymG/SdFw/a8lf7LH75EvjdrpAcZJFiECcQO
Y+unZGb8AjYedehas/ddXTglHsfLZ8pn
-----END CERTIFICATE-----
